target datalayout = "e-m:e-p270:32:32-p271:32:32-p272:64:64-i64:64-i128:128-f80:128-n8:16:32:64-S128"
target triple = "x86_64-pc-linux-gnu"

%class.Klass = type <{ %class.Metadata, i32, i32, i32, i32, ptr, ptr, ptr, [8 x ptr], %class.OopHandle, ptr, ptr, ptr, ptr, ptr, i32, %class.AccessFlags, i64, i64, i8, i8, i16, i16, [2 x i8], i32, [4 x i8] }>
%class.Metadata = type { ptr }
%class.OopHandle = type { ptr }
%class.AccessFlags = type { i32 }
%"class.AccessInternal::OopLoadProxy" = type { ptr }
%"class.AccessInternal::OopLoadProxy.27" = type { ptr }

@_ZN14AccessInternal15RuntimeDispatchILm548932EP7oopDescLNS_11BarrierTypeE2EE10_load_funcE = linkonce_odr hidden global ptr @_ZN14AccessInternal15RuntimeDispatchILm548932EP7oopDescLNS_11BarrierTypeE2EE9load_initEPv, comdat, align 8
@_ZN14AccessInternal15RuntimeDispatchILm598084EP7oopDescLNS_11BarrierTypeE2EE10_load_funcE = linkonce_odr hidden global ptr @_ZN14AccessInternal15RuntimeDispatchILm598084EP7oopDescLNS_11BarrierTypeE2EE9load_initEPv, comdat, align 8
@_ZN15java_lang_Class13_klass_offsetE = external global i32, align 4

; Function Attrs: mustprogress nounwind uwtable
define linkonce_odr hidden noundef ptr @_ZN16RawAccessBarrierILm68EE15decode_internalILm68EP7oopDescEENSt9enable_ifIXntsr14AccessInternal24MustConvertCompressedOopIXT_ET0_EE5valueES5_E4typeES5_(ptr noundef %0) #1 comdat align 2 {
  %2 = alloca ptr, align 8
  store ptr %0, ptr %2, align 8
  %3 = load ptr, ptr %2, align 8
  ret ptr %3
}

; Function Attrs: mustprogress nounwind uwtable
define linkonce_odr hidden noundef ptr @_ZN16RawAccessBarrierILm68EE13load_internalILm68EP7oopDescEENSt9enable_ifIXsr12HasDecoratorIXT_EL_ZL12MO_UNORDEREDEEE5valueET0_E4typeEPv(ptr noundef %0) #1 comdat align 2 {
  %2 = alloca ptr, align 8
  store ptr %0, ptr %2, align 8
  %3 = load ptr, ptr %2, align 8
  %4 = load ptr, ptr %3, align 8
  ret ptr %4
}

; Function Attrs: mustprogress nounwind uwtable
define linkonce_odr hidden noundef ptr @_ZN16RawAccessBarrierILm68EE6decodeIP7oopDescEET_N14AccessInternal11EncodedTypeILm68ES4_E4typeE(ptr noundef %0) #1 comdat align 2 {
  %2 = alloca ptr, align 8
  store ptr %0, ptr %2, align 8
  %3 = load ptr, ptr %2, align 8
  %4 = call noundef ptr @_ZN16RawAccessBarrierILm68EE15decode_internalILm68EP7oopDescEENSt9enable_ifIXntsr14AccessInternal24MustConvertCompressedOopIXT_ET0_EE5valueES5_E4typeES5_(ptr noundef %3)
  ret ptr %4
}

; Function Attrs: mustprogress nounwind uwtable
define linkonce_odr hidden noundef ptr @_ZN16RawAccessBarrierILm68EE4loadIP7oopDescEET_Pv(ptr noundef %0) #1 comdat align 2 {
  %2 = alloca ptr, align 8
  store ptr %0, ptr %2, align 8
  %3 = load ptr, ptr %2, align 8
  %4 = call noundef ptr @_ZN16RawAccessBarrierILm68EE13load_internalILm68EP7oopDescEENSt9enable_ifIXsr12HasDecoratorIXT_EL_ZL12MO_UNORDEREDEEE5valueET0_E4typeEPv(ptr noundef %3)
  ret ptr %4
}

; Function Attrs: mustprogress nounwind uwtable
define linkonce_odr hidden noundef ptr @_ZN16RawAccessBarrierILm68EE8oop_loadIP7oopDescEET_Pv(ptr noundef %0) #1 comdat align 2 {
  %2 = alloca ptr, align 8
  %3 = alloca ptr, align 8
  store ptr %0, ptr %2, align 8
  %4 = load ptr, ptr %2, align 8
  %5 = call noundef ptr @_ZN16RawAccessBarrierILm68EE4loadIP7oopDescEET_Pv(ptr noundef %4)
  store ptr %5, ptr %3, align 8
  %6 = load ptr, ptr %3, align 8
  %7 = call noundef ptr @_ZN16RawAccessBarrierILm68EE6decodeIP7oopDescEET_N14AccessInternal11EncodedTypeILm68ES4_E4typeE(ptr noundef %6)
  ret ptr %7
}

; Function Attrs: mustprogress nounwind uwtable
define linkonce_odr hidden noundef ptr @_ZN14AccessInternal15RuntimeDispatchILm548932EP7oopDescLNS_11BarrierTypeE2EE4loadEPv(ptr noundef %0) #1 comdat align 2 {
  %2 = alloca ptr, align 8
  store ptr %0, ptr %2, align 8
  %3 = load ptr, ptr @_ZN14AccessInternal15RuntimeDispatchILm548932EP7oopDescLNS_11BarrierTypeE2EE10_load_funcE, align 8
  %4 = load ptr, ptr %2, align 8
  %5 = call noundef ptr %3(ptr noundef %4)
  ret ptr %5
}

; Function Attrs: mustprogress nounwind uwtable
define linkonce_odr hidden noundef ptr @_ZN14AccessInternal18PreRuntimeDispatch4loadILm550980EP7oopDescEENSt9enable_ifIXaasr12HasDecoratorIXT_EL_ZL6AS_RAWEEE5valuesr14CanHardwireRawIXT_EEE5valueET0_E4typeEPv(ptr noundef %0) #1 comdat align 2 {
  %2 = alloca ptr, align 8
  store ptr %0, ptr %2, align 8
  %3 = load ptr, ptr %2, align 8
  %4 = call noundef ptr @_ZN16RawAccessBarrierILm68EE8oop_loadIP7oopDescEET_Pv(ptr noundef %3)
  ret ptr %4
}

; Function Attrs: mustprogress nounwind uwtable
define linkonce_odr hidden noundef zeroext i1 @_ZN14AccessInternal18PreRuntimeDispatch22is_hardwired_primitiveILm548932EEEbv() #1 comdat align 2 {
  ret i1 false
}

; Function Attrs: mustprogress nounwind uwtable
define linkonce_odr hidden noundef ptr @_ZN14AccessInternal15RuntimeDispatchILm598084EP7oopDescLNS_11BarrierTypeE2EE4loadEPv(ptr noundef %0) #1 comdat align 2 {
  %2 = alloca ptr, align 8
  store ptr %0, ptr %2, align 8
  %3 = load ptr, ptr @_ZN14AccessInternal15RuntimeDispatchILm598084EP7oopDescLNS_11BarrierTypeE2EE10_load_funcE, align 8
  %4 = load ptr, ptr %2, align 8
  %5 = call noundef ptr %3(ptr noundef %4)
  ret ptr %5
}

; Function Attrs: mustprogress nounwind uwtable
define linkonce_odr hidden noundef ptr @_ZN14AccessInternal18PreRuntimeDispatch4loadILm600132EP7oopDescEENSt9enable_ifIXaasr12HasDecoratorIXT_EL_ZL6AS_RAWEEE5valuesr14CanHardwireRawIXT_EEE5valueET0_E4typeEPv(ptr noundef %0) #1 comdat align 2 {
  %2 = alloca ptr, align 8
  store ptr %0, ptr %2, align 8
  %3 = load ptr, ptr %2, align 8
  %4 = call noundef ptr @_ZN16RawAccessBarrierILm68EE8oop_loadIP7oopDescEET_Pv(ptr noundef %3)
  ret ptr %4
}

; Function Attrs: mustprogress nounwind uwtable
define linkonce_odr hidden noundef zeroext i1 @_ZN14AccessInternal18PreRuntimeDispatch22is_hardwired_primitiveILm598084EEEbv() #1 comdat align 2 {
  ret i1 false
}

; Function Attrs: mustprogress nounwind uwtable
define linkonce_odr hidden noundef ptr @_ZN14AccessInternal18PreRuntimeDispatch4loadILm548932EP7oopDescEENSt9enable_ifIXntsr12HasDecoratorIXT_EL_ZL6AS_RAWEEE5valueET0_E4typeEPv(ptr noundef %0) #1 comdat align 2 {
  %2 = alloca ptr, align 8
  %3 = alloca ptr, align 8
  %4 = alloca i64, align 8
  store ptr %0, ptr %3, align 8
  %5 = call noundef zeroext i1 @_ZN14AccessInternal18PreRuntimeDispatch22is_hardwired_primitiveILm548932EEEbv()
  br i1 %5, label %6, label %9

6:                                                ; preds = %1
  store i64 550980, ptr %4, align 8
  %7 = load ptr, ptr %3, align 8
  %8 = call noundef ptr @_ZN14AccessInternal18PreRuntimeDispatch4loadILm550980EP7oopDescEENSt9enable_ifIXaasr12HasDecoratorIXT_EL_ZL6AS_RAWEEE5valuesr14CanHardwireRawIXT_EEE5valueET0_E4typeEPv(ptr noundef %7)
  store ptr %8, ptr %2, align 8
  br label %12

9:                                                ; preds = %1
  %10 = load ptr, ptr %3, align 8
  %11 = call noundef ptr @_ZN14AccessInternal15RuntimeDispatchILm548932EP7oopDescLNS_11BarrierTypeE2EE4loadEPv(ptr noundef %10)
  store ptr %11, ptr %2, align 8
  br label %12

12:                                               ; preds = %9, %6
  %13 = load ptr, ptr %2, align 8
  ret ptr %13
}

; Function Attrs: mustprogress nounwind uwtable
define linkonce_odr hidden noundef ptr @_ZN14AccessInternal18PreRuntimeDispatch4loadILm598084EP7oopDescEENSt9enable_ifIXntsr12HasDecoratorIXT_EL_ZL6AS_RAWEEE5valueET0_E4typeEPv(ptr noundef %0) #1 comdat align 2 {
  %2 = alloca ptr, align 8
  %3 = alloca ptr, align 8
  %4 = alloca i64, align 8
  store ptr %0, ptr %3, align 8
  %5 = call noundef zeroext i1 @_ZN14AccessInternal18PreRuntimeDispatch22is_hardwired_primitiveILm598084EEEbv()
  br i1 %5, label %6, label %9

6:                                                ; preds = %1
  store i64 600132, ptr %4, align 8
  %7 = load ptr, ptr %3, align 8
  %8 = call noundef ptr @_ZN14AccessInternal18PreRuntimeDispatch4loadILm600132EP7oopDescEENSt9enable_ifIXaasr12HasDecoratorIXT_EL_ZL6AS_RAWEEE5valuesr14CanHardwireRawIXT_EEE5valueET0_E4typeEPv(ptr noundef %7)
  store ptr %8, ptr %2, align 8
  br label %12

9:                                                ; preds = %1
  %10 = load ptr, ptr %3, align 8
  %11 = call noundef ptr @_ZN14AccessInternal15RuntimeDispatchILm598084EP7oopDescLNS_11BarrierTypeE2EE4loadEPv(ptr noundef %10)
  store ptr %11, ptr %2, align 8
  br label %12

12:                                               ; preds = %9, %6
  %13 = load ptr, ptr %2, align 8
  ret ptr %13
}

; Function Attrs: mustprogress nounwind uwtable
define linkonce_odr hidden noundef ptr @_ZN14AccessInternal17load_reduce_typesILm548932EP7oopDescEET0_PS3_(ptr noundef %0) #1 comdat {
  %2 = alloca ptr, align 8
  store ptr %0, ptr %2, align 8
  %3 = load ptr, ptr %2, align 8
  %4 = call noundef ptr @_ZN14AccessInternal18PreRuntimeDispatch4loadILm548932EP7oopDescEENSt9enable_ifIXntsr12HasDecoratorIXT_EL_ZL6AS_RAWEEE5valueET0_E4typeEPv(ptr noundef %3)
  ret ptr %4
}

; Function Attrs: mustprogress nounwind uwtable
define internal void @_ZN14AccessInternalL12verify_typesILm524292EP7oopDescEEvv() #1 {
  ret void
}

; Function Attrs: mustprogress nounwind uwtable
define linkonce_odr hidden void @_ZN6AccessILm524288EE17verify_decoratorsILm16645568EEEvv() #1 comdat align 2 {
  %1 = alloca i64, align 8
  %2 = alloca i64, align 8
  %3 = alloca i64, align 8
  %4 = alloca i64, align 8
  store i64 0, ptr %1, align 8
  store i64 0, ptr %2, align 8
  store i64 0, ptr %3, align 8
  store i64 524288, ptr %4, align 8
  ret void
}

; Function Attrs: mustprogress nounwind uwtable
define linkonce_odr hidden noundef ptr @_ZN14AccessInternal17load_reduce_typesILm598084EP7oopDescEET0_PS3_(ptr noundef %0) #1 comdat {
  %2 = alloca ptr, align 8
  store ptr %0, ptr %2, align 8
  %3 = load ptr, ptr %2, align 8
  %4 = call noundef ptr @_ZN14AccessInternal18PreRuntimeDispatch4loadILm598084EP7oopDescEENSt9enable_ifIXntsr12HasDecoratorIXT_EL_ZL6AS_RAWEEE5valueET0_E4typeEPv(ptr noundef %3)
  ret ptr %4
}

; Function Attrs: mustprogress nounwind uwtable
define internal void @_ZN14AccessInternalL12verify_typesILm589828EP7oopDescEEvv() #1 {
  ret void
}

; Function Attrs: mustprogress nounwind uwtable
define linkonce_odr hidden void @_ZN6AccessILm589824EE17verify_decoratorsILm16645568EEEvv() #1 comdat align 2 {
  %1 = alloca i64, align 8
  %2 = alloca i64, align 8
  %3 = alloca i64, align 8
  %4 = alloca i64, align 8
  store i64 0, ptr %1, align 8
  store i64 65536, ptr %2, align 8
  store i64 0, ptr %3, align 8
  store i64 524288, ptr %4, align 8
  ret void
}

; Function Attrs: mustprogress nounwind uwtable
define linkonce_odr hidden noundef ptr @_ZN14AccessInternal4loadILm524292EP7oopDescS2_EET1_PT0_(ptr noundef %0) #1 comdat {
  %2 = alloca ptr, align 8
  %3 = alloca i64, align 8
  store ptr %0, ptr %2, align 8
  call void @_ZN14AccessInternalL12verify_typesILm524292EP7oopDescEEvv()
  store i64 548932, ptr %3, align 8
  %4 = load ptr, ptr %2, align 8
  %5 = call noundef ptr @_ZN14AccessInternal17load_reduce_typesILm548932EP7oopDescEET0_PS3_(ptr noundef %4)
  ret ptr %5
}

; Function Attrs: mustprogress nounwind uwtable
define linkonce_odr hidden void @_ZN14AccessInternal12OopLoadProxyIP7oopDescLm524288EEC2EPS2_(ptr noundef nonnull align 8 dereferenceable(8) %0, ptr noundef %1) unnamed_addr #1 comdat align 2 {
  %3 = alloca ptr, align 8
  %4 = alloca ptr, align 8
  store ptr %0, ptr %3, align 8
  store ptr %1, ptr %4, align 8
  %5 = load ptr, ptr %3, align 8
  %6 = getelementptr inbounds %"class.AccessInternal::OopLoadProxy", ptr %5, i32 0, i32 0
  %7 = load ptr, ptr %4, align 8
  store ptr %7, ptr %6, align 8
  ret void
}

; Function Attrs: mustprogress nounwind uwtable
define linkonce_odr hidden void @_ZN6AccessILm524288EE21verify_oop_decoratorsILm1472EEEvv() #1 comdat align 2 {
  %1 = alloca i64, align 8
  store i64 16644096, ptr %1, align 8
  call void @_ZN6AccessILm524288EE17verify_decoratorsILm16645568EEEvv()
  ret void
}

; Function Attrs: mustprogress nounwind uwtable
define linkonce_odr hidden noundef ptr @_ZN14AccessInternal4loadILm589828EP7oopDescS2_EET1_PT0_(ptr noundef %0) #1 comdat {
  %2 = alloca ptr, align 8
  %3 = alloca i64, align 8
  store ptr %0, ptr %2, align 8
  call void @_ZN14AccessInternalL12verify_typesILm589828EP7oopDescEEvv()
  store i64 598084, ptr %3, align 8
  %4 = load ptr, ptr %2, align 8
  %5 = call noundef ptr @_ZN14AccessInternal17load_reduce_typesILm598084EP7oopDescEET0_PS3_(ptr noundef %4)
  ret ptr %5
}

; Function Attrs: mustprogress nounwind uwtable
define linkonce_odr hidden void @_ZN14AccessInternal12OopLoadProxyIP7oopDescLm589824EEC2EPS2_(ptr noundef nonnull align 8 dereferenceable(8) %0, ptr noundef %1) unnamed_addr #1 comdat align 2 {
  %3 = alloca ptr, align 8
  %4 = alloca ptr, align 8
  store ptr %0, ptr %3, align 8
  store ptr %1, ptr %4, align 8
  %5 = load ptr, ptr %3, align 8
  %6 = getelementptr inbounds %"class.AccessInternal::OopLoadProxy.27", ptr %5, i32 0, i32 0
  %7 = load ptr, ptr %4, align 8
  store ptr %7, ptr %6, align 8
  ret void
}

; Function Attrs: mustprogress nounwind uwtable
define linkonce_odr hidden void @_ZN6AccessILm589824EE21verify_oop_decoratorsILm1472EEEvv() #1 comdat align 2 {
  %1 = alloca i64, align 8
  store i64 16644096, ptr %1, align 8
  call void @_ZN6AccessILm589824EE17verify_decoratorsILm16645568EEEvv()
  ret void
}

; Function Attrs: mustprogress nounwind uwtable
define linkonce_odr hidden noundef zeroext i1 @_ZN10JNIHandles14is_tagged_withEP8_jobjectNS_7TypeTagE(ptr noundef %0, i32 noundef %1) #1 comdat align 2 {
  %3 = alloca ptr, align 8
  %4 = alloca i32, align 4
  store ptr %0, ptr %3, align 8
  store i32 %1, ptr %4, align 4
  %5 = load ptr, ptr %3, align 8
  %6 = ptrtoint ptr %5 to i64
  %7 = and i64 %6, 3
  %8 = load i32, ptr %4, align 4
  %9 = zext i32 %8 to i64
  %10 = icmp eq i64 %7, %9
  ret i1 %10
}

; Function Attrs: mustprogress nounwind uwtable
define linkonce_odr hidden noundef i64 @_ZNK5Klass8trace_idEv(ptr noundef nonnull align 8 dereferenceable(196) %0) #1 comdat align 2 {
  %2 = alloca ptr, align 8
  store ptr %0, ptr %2, align 8
  %3 = load ptr, ptr %2, align 8
  %4 = getelementptr inbounds %class.Klass, ptr %3, i32 0, i32 17
  %5 = load i64, ptr %4, align 8
  ret i64 %5
}

; Function Attrs: mustprogress nounwind uwtable
define linkonce_odr hidden noundef ptr @_ZN10JNIHandles9local_ptrEP8_jobject(ptr noundef %0) #1 comdat align 2 {
  %2 = alloca ptr, align 8
  store ptr %0, ptr %2, align 8
  %3 = load ptr, ptr %2, align 8
  ret ptr %3
}

; Function Attrs: mustprogress nounwind uwtable
define linkonce_odr hidden noundef ptr @_ZN14AccessInternal12OopLoadProxyIP7oopDescLm524288EEcvS2_Ev(ptr noundef nonnull align 8 dereferenceable(8) %0) #1 comdat align 2 {
  %2 = alloca ptr, align 8
  store ptr %0, ptr %2, align 8
  %3 = load ptr, ptr %2, align 8
  %4 = getelementptr inbounds %"class.AccessInternal::OopLoadProxy", ptr %3, i32 0, i32 0
  %5 = load ptr, ptr %4, align 8
  %6 = call noundef ptr @_ZN14AccessInternal4loadILm524292EP7oopDescS2_EET1_PT0_(ptr noundef %5)
  ret ptr %6
}

; Function Attrs: mustprogress nounwind uwtable
define linkonce_odr hidden ptr @_ZN6AccessILm524288EE8oop_loadIP7oopDescEEN14AccessInternal12OopLoadProxyIT_Lm524288EEEPS6_(ptr noundef %0) #1 comdat align 2 {
  %2 = alloca %"class.AccessInternal::OopLoadProxy", align 8
  %3 = alloca ptr, align 8
  store ptr %0, ptr %3, align 8
  call void @_ZN6AccessILm524288EE21verify_oop_decoratorsILm1472EEEvv()
  %4 = load ptr, ptr %3, align 8
  call void @_ZN14AccessInternal12OopLoadProxyIP7oopDescLm524288EEC2EPS2_(ptr noundef nonnull align 8 dereferenceable(8) %2, ptr noundef %4)
  %5 = getelementptr inbounds %"class.AccessInternal::OopLoadProxy", ptr %2, i32 0, i32 0
  %6 = load ptr, ptr %5, align 8
  ret ptr %6
}

; Function Attrs: mustprogress nounwind uwtable
define linkonce_odr hidden noundef ptr @_ZN10JNIHandles10global_ptrEP8_jobject(ptr noundef %0) #1 comdat align 2 {
  %2 = alloca ptr, align 8
  %3 = alloca ptr, align 8
  store ptr %0, ptr %2, align 8
  %4 = load ptr, ptr %2, align 8
  %5 = getelementptr inbounds i8, ptr %4, i64 -2
  store ptr %5, ptr %3, align 8
  %6 = load ptr, ptr %3, align 8
  ret ptr %6
}

; Function Attrs: mustprogress nounwind uwtable
define linkonce_odr hidden noundef zeroext i1 @_ZN10JNIHandles16is_global_taggedEP8_jobject(ptr noundef %0) #1 comdat align 2 {
  %2 = alloca ptr, align 8
  store ptr %0, ptr %2, align 8
  %3 = load ptr, ptr %2, align 8
  %4 = call noundef zeroext i1 @_ZN10JNIHandles14is_tagged_withEP8_jobjectNS_7TypeTagE(ptr noundef %3, i32 noundef 2)
  ret i1 %4
}

; Function Attrs: mustprogress nounwind uwtable
define linkonce_odr hidden noundef ptr @_ZN14AccessInternal12OopLoadProxyIP7oopDescLm589824EEcvS2_Ev(ptr noundef nonnull align 8 dereferenceable(8) %0) #1 comdat align 2 {
  %2 = alloca ptr, align 8
  store ptr %0, ptr %2, align 8
  %3 = load ptr, ptr %2, align 8
  %4 = getelementptr inbounds %"class.AccessInternal::OopLoadProxy.27", ptr %3, i32 0, i32 0
  %5 = load ptr, ptr %4, align 8
  %6 = call noundef ptr @_ZN14AccessInternal4loadILm589828EP7oopDescS2_EET1_PT0_(ptr noundef %5)
  ret ptr %6
}

; Function Attrs: mustprogress nounwind uwtable
define linkonce_odr hidden ptr @_ZN6AccessILm589824EE8oop_loadIP7oopDescEEN14AccessInternal12OopLoadProxyIT_Lm589824EEEPS6_(ptr noundef %0) #1 comdat align 2 {
  %2 = alloca %"class.AccessInternal::OopLoadProxy.27", align 8
  %3 = alloca ptr, align 8
  store ptr %0, ptr %3, align 8
  call void @_ZN6AccessILm589824EE21verify_oop_decoratorsILm1472EEEvv()
  %4 = load ptr, ptr %3, align 8
  call void @_ZN14AccessInternal12OopLoadProxyIP7oopDescLm589824EEC2EPS2_(ptr noundef nonnull align 8 dereferenceable(8) %2, ptr noundef %4)
  %5 = getelementptr inbounds %"class.AccessInternal::OopLoadProxy.27", ptr %2, i32 0, i32 0
  %6 = load ptr, ptr %5, align 8
  ret ptr %6
}

; Function Attrs: mustprogress nounwind uwtable
define linkonce_odr hidden noundef ptr @_ZN10JNIHandles15weak_global_ptrEP8_jobject(ptr noundef %0) #1 comdat align 2 {
  %2 = alloca ptr, align 8
  %3 = alloca ptr, align 8
  store ptr %0, ptr %2, align 8
  %4 = load ptr, ptr %2, align 8
  %5 = getelementptr inbounds i8, ptr %4, i64 -1
  store ptr %5, ptr %3, align 8
  %6 = load ptr, ptr %3, align 8
  ret ptr %6
}

; Function Attrs: mustprogress nounwind uwtable
define linkonce_odr hidden noundef zeroext i1 @_ZN10JNIHandles21is_weak_global_taggedEP8_jobject(ptr noundef %0) #1 comdat align 2 {
  %2 = alloca ptr, align 8
  store ptr %0, ptr %2, align 8
  %3 = load ptr, ptr %2, align 8
  %4 = call noundef zeroext i1 @_ZN10JNIHandles14is_tagged_withEP8_jobjectNS_7TypeTagE(ptr noundef %3, i32 noundef 1)
  ret i1 %4
}

; Function Attrs: mustprogress nounwind uwtable
define linkonce_odr hidden noundef i64 @_ZN14JfrTraceIdBits4loadI5KlassEEmPKT_(ptr noundef %0) #1 comdat align 2 {
  %2 = alloca ptr, align 8
  store ptr %0, ptr %2, align 8
  %3 = load ptr, ptr %2, align 8
  %4 = call noundef i64 @_ZNK5Klass8trace_idEv(ptr noundef nonnull align 8 dereferenceable(196) %3)
  ret i64 %4
}

; Function Attrs: mustprogress nounwind uwtable
define linkonce_odr hidden noundef ptr @_ZN10JNIHandles12resolve_implILm0ELb0EEEP7oopDescP8_jobject(ptr noundef %0) #1 comdat align 2 {
  %2 = alloca ptr, align 8
  %3 = alloca ptr, align 8
  %4 = alloca %"class.AccessInternal::OopLoadProxy.27", align 8
  %5 = alloca %"class.AccessInternal::OopLoadProxy", align 8
  store ptr %0, ptr %2, align 8
  %6 = load ptr, ptr %2, align 8
  %7 = call noundef zeroext i1 @_ZN10JNIHandles21is_weak_global_taggedEP8_jobject(ptr noundef %6)
  br i1 %7, label %8, label %14

8:                                                ; preds = %1
  %9 = load ptr, ptr %2, align 8
  %10 = call noundef ptr @_ZN10JNIHandles15weak_global_ptrEP8_jobject(ptr noundef %9)
  %11 = call ptr @_ZN6AccessILm589824EE8oop_loadIP7oopDescEEN14AccessInternal12OopLoadProxyIT_Lm589824EEEPS6_(ptr noundef %10)
  %12 = getelementptr inbounds %"class.AccessInternal::OopLoadProxy.27", ptr %4, i32 0, i32 0
  store ptr %11, ptr %12, align 8
  %13 = call noundef ptr @_ZN14AccessInternal12OopLoadProxyIP7oopDescLm589824EEcvS2_Ev(ptr noundef nonnull align 8 dereferenceable(8) %4)
  store ptr %13, ptr %3, align 8
  br label %28

14:                                               ; preds = %1
  %15 = load ptr, ptr %2, align 8
  %16 = call noundef zeroext i1 @_ZN10JNIHandles16is_global_taggedEP8_jobject(ptr noundef %15)
  br i1 %16, label %17, label %23

17:                                               ; preds = %14
  %18 = load ptr, ptr %2, align 8
  %19 = call noundef ptr @_ZN10JNIHandles10global_ptrEP8_jobject(ptr noundef %18)
  %20 = call ptr @_ZN6AccessILm524288EE8oop_loadIP7oopDescEEN14AccessInternal12OopLoadProxyIT_Lm524288EEEPS6_(ptr noundef %19)
  %21 = getelementptr inbounds %"class.AccessInternal::OopLoadProxy", ptr %5, i32 0, i32 0
  store ptr %20, ptr %21, align 8
  %22 = call noundef ptr @_ZN14AccessInternal12OopLoadProxyIP7oopDescLm524288EEcvS2_Ev(ptr noundef nonnull align 8 dereferenceable(8) %5)
  store ptr %22, ptr %3, align 8
  br label %27

23:                                               ; preds = %14
  %24 = load ptr, ptr %2, align 8
  %25 = call noundef ptr @_ZN10JNIHandles9local_ptrEP8_jobject(ptr noundef %24)
  %26 = load ptr, ptr %25, align 8
  store ptr %26, ptr %3, align 8
  br label %27

27:                                               ; preds = %23, %17
  br label %28

28:                                               ; preds = %27, %8
  %29 = load ptr, ptr %3, align 8
  ret ptr %29
}

; Function Attrs: mustprogress nounwind uwtable
define linkonce_odr hidden noundef zeroext i1 @_ZN10JfrTraceId13is_event_hostEPK5Klass(ptr noundef %0) #1 comdat align 2 {
  %2 = alloca ptr, align 8
  store ptr %0, ptr %2, align 8
  %3 = load ptr, ptr %2, align 8
  %4 = call noundef i64 @_ZN14JfrTraceIdBits4loadI5KlassEEmPKT_(ptr noundef %3)
  %5 = and i64 %4, 64
  %6 = icmp ne i64 %5, 0
  ret i1 %6
}

; Function Attrs: mustprogress nounwind uwtable
define linkonce_odr hidden noundef ptr @_ZN15java_lang_Class8as_KlassEP7oopDesc(ptr noundef %0) #1 comdat align 2 {
  %2 = alloca ptr, align 8
  %3 = alloca ptr, align 8
  store ptr %0, ptr %2, align 8
  %4 = load ptr, ptr %2, align 8
  %5 = load i32, ptr @_ZN15java_lang_Class13_klass_offsetE, align 4
  %6 = call noundef ptr @_ZNK7oopDesc14metadata_fieldEi(ptr noundef nonnull align 8 dereferenceable(16) %4, i32 noundef %5)
  store ptr %6, ptr %3, align 8
  %7 = load ptr, ptr %3, align 8
  ret ptr %7
}

; Function Attrs: mustprogress nounwind uwtable
define linkonce_odr hidden noundef ptr @_ZN10JNIHandles7resolveEP8_jobject(ptr noundef %0) #1 comdat align 2 {
  %2 = alloca ptr, align 8
  %3 = alloca ptr, align 8
  store ptr %0, ptr %2, align 8
  store ptr null, ptr %3, align 8
  %4 = load ptr, ptr %2, align 8
  %5 = icmp ne ptr %4, null
  br i1 %5, label %6, label %9

6:                                                ; preds = %1
  %7 = load ptr, ptr %2, align 8
  %8 = call noundef ptr @_ZN10JNIHandles12resolve_implILm0ELb0EEEP7oopDescP8_jobject(ptr noundef %7)
  store ptr %8, ptr %3, align 8
  br label %9

9:                                                ; preds = %6, %1
  %10 = load ptr, ptr %3, align 8
  ret ptr %10
}

; Function Attrs: mustprogress nounwind uwtable
define hidden noundef zeroext i1 @_ZN10JfrTraceId13is_event_hostEP7_jclass(ptr noundef %0) #1 align 2 {
  %2 = alloca ptr, align 8
  %3 = alloca ptr, align 8
  store ptr %0, ptr %2, align 8
  %4 = load ptr, ptr %2, align 8
  %5 = call noundef ptr @_ZN10JNIHandles7resolveEP8_jobject(ptr noundef %4)
  store ptr %5, ptr %3, align 8
  %6 = load ptr, ptr %3, align 8
  %7 = call noundef ptr @_ZN15java_lang_Class8as_KlassEP7oopDesc(ptr noundef %6)
  %8 = call noundef zeroext i1 @_ZN10JfrTraceId13is_event_hostEPK5Klass(ptr noundef %7)
  ret i1 %8
}