; Function Attrs: mustprogress nounwind uwtable
define hidden noundef zeroext i1 @_ZN10JfrTraceId13is_event_hostEP7_jclass(ptr noundef %0) local_unnamed_addr #0 align 2 {
  %.not.i = icmp ne ptr %0, null
  tail call void @llvm.assume(i1 %.not.i)
  %2 = ptrtoint ptr %0 to i64
  %3 = and i64 %2, 3
  switch i64 %3, label %12 [
    i64 1, label %4
    i64 2, label %8
  ]

4:                                                ; preds = %1
  %5 = getelementptr inbounds i8, ptr %0, i64 -1
  %6 = load ptr, ptr @_ZN14AccessInternal15RuntimeDispatchILm598084EP7oopDescLNS_11BarrierTypeE2EE10_load_funcE, align 8
  %7 = tail call noundef ptr %6(ptr noundef nonnull %5) #8
  br label %_ZN10JNIHandles7resolveEP8_jobject.exit

8:                                                ; preds = %1
  %9 = getelementptr inbounds i8, ptr %0, i64 -2
  %10 = load ptr, ptr @_ZN14AccessInternal15RuntimeDispatchILm548932EP7oopDescLNS_11BarrierTypeE2EE10_load_funcE, align 8
  %11 = tail call noundef ptr %10(ptr noundef nonnull %9) #8
  br label %_ZN10JNIHandles7resolveEP8_jobject.exit

12:                                               ; preds = %1
  %13 = load ptr, ptr %0, align 8
  br label %_ZN10JNIHandles7resolveEP8_jobject.exit

_ZN10JNIHandles7resolveEP8_jobject.exit:          ; preds = %4, %8, %12
  %.0.i = phi ptr [ %7, %4 ], [ %11, %8 ], [ %13, %12 ]
  %14 = load i32, ptr @_ZN15java_lang_Class13_klass_offsetE, align 4
  %15 = tail call noundef ptr @_ZNK7oopDesc14metadata_fieldEi(ptr noundef nonnull align 8 dereferenceable(16) %.0.i, i32 noundef %14) #8
  %16 = getelementptr inbounds i8, ptr %15, i64 168
  %17 = load i64, ptr %16, align 8
  %18 = and i64 %17, 64
  %19 = icmp ne i64 %18, 0
  ret i1 %19
}